(lp0
S'What Not to Do on Iran | The American Conservative'
p1
aS'UVA\xe2\x80\x99s Jackie: A Wahoo Tawana Brawley? | The American Conservative'
p2
aS'Channing Tatum. Wrestling Picture. Whadaya Need \xe2\x80\x93 A Road Map? | The American Conservative'
p3
aS'Europe\xe2\x80\x99s Conchita Wurst Consensus | The American Conservative'
p4
aS'Double Feature Feature: 10,000 Hours Edition | The American Conservative'
p5
aS'What Are \xe2\x80\x9cNational Rights\xe2\x80\x9d? | The American Conservative'
p6
aS'About Us | The American Conservative'
p7
aS'Grand Strategy Is Bunk | The American Conservative'
p8
aS'A Fraternity of Rape | The American Conservative'
p9
aS'RIP The New Republic | The American Conservative'
p10
aS'Bringing Back Husbandry | The American Conservative'
p11
aS'Is Clickbait the End of Online News? | The American Conservative'
p12
aS'The Moral Path to Peace | The American Conservative'
p13
aS'Deconstructing Western Civilization | The American Conservative'
p14
aS'SWPLs & Eric Garner | The American Conservative'
p15
aS'Jeb Bush\xe2\x80\x99s Victory Plan | The American Conservative'
p16
aS'The Uses and Abuses of Historical Analogies | The American Conservative'
p17
aS'The Dante Club | The American Conservative'
p18
aS'Federalism Can Still Save Religious Liberty | The American Conservative'
p19
aS'Why the Dishonest Charge of \xe2\x80\x9cRetreat\xe2\x80\x9d Endures | The American Conservative'
p20
aS'Against the Mob | The American Conservative'
p21
aS'Jindal\xe2\x80\x99s Boilerplate Hawkishness | The American Conservative'
p22
aS'Eric Garner & Police Brutality | The American Conservative'
p23
aS'Ferguson Is Not Palestine | The American Conservative'
p24
aS'Chris Rocks, Chris Rolls | The American Conservative'
p25
aS'The Greatly Overrated Rubio | The American Conservative'
p26
aS'Ukraine and NATO | The American Conservative'
p27
aS'A Chuck Hagel Postmortem | The American Conservative'
p28
aS'Iran: We Need to Talk | The American Conservative'
p29
aS'Galloping Toward Gomorrah | The American Conservative'
p30
aS'COIN Is a Proven Failure | The American Conservative'
p31
aS'Considering Thankfulness | The American Conservative'
p32
aS'A Millman-Walt Dialogue On Foreign Policy | The American Conservative'
p33
aS'Star Wars and Politics | The American Conservative'
p34
aS'Thanksgiving Doorbusters Backfire on Big Retail | The American Conservative'
p35
aS'And Now, For Something Completely Different \xe2\x80\x93 Or Perhaps Not | The American Conservative'
p36
aS'The American Conservative'
p37
aS'Cotton and the Iran Hawks\xe2\x80\x99 Loathing of Diplomacy | The American Conservative'
p38
aS'Bringing Big Data to the Farm | The American Conservative'
p39
aS'Declaring War on ISIS | The American Conservative'
p40
aS'At Gitmo, a Tough Policy To Swallow - Steve Chapman -  Page full'
p41
aS'The Power of a Pause - Jackie Gingrich Cushman -  Page full'
p42
aS'Why Conservatives Should Get to Know Bitcoin - Townhall Magazine '
p43
aS'Can Racial Discrimination Explain Much? - Walter E. Williams -  Page full'
p44
aS"Europe Is Way Behind the United States... And Here's Why - Daniel J. Mitchell - Townhall Finance Conservative Columnists and Financial Commentary - Page full"
p45
aS'"Robust Recovery" Theory Debunked  - Mike Shedlock - Townhall Finance Conservative Columnists and Financial Commentary - Page 1'
p46
aS'Fed Yearns for Higher Inflation to Disguise Asset Bubbles  - Peter Schiff - Townhall Finance Conservative Columnists and Financial Commentary - Page full'
p47
aS'Report: Prominent Ex-Governor Making Inquiries Into NH... - Daniel Doherty '
p48
aS'UW agency coordinated with liberal groups on minimum wage study - Adam Tobias'
p49
aS'Abandon Ship: Another Democratic Senator Admits Obamacare Was a Mistake - Guy Benson '
p50
aS'The Willfully Ignorant - Derek Hunter -  Page full'
p51
aS'Helping a Millennial Get a Job - Bob Goldman - Townhall Finance Conservative Columnists and Financial Commentary - Page full'
p52
aS"Black People The Media Hate (And Rand Paul Isn't Wild About) - Ann Coulter -  Page full"
p53
aS'Who Killed Black Friday? - Peter Morici - Townhall Finance Conservative Columnists and Financial Commentary - Page full'
p54
aS'Diplomacy Failed in Iran: Fund Missile Defense - George Landrith -  Page full'
p55
aS'House Republicans Preparing for Negotiated Surrender... Again - Ransom Notes Radio - Townhall Finance Conservative Columnists and Financial Commentary - Page 1'
p56
aS'Nothing on Terry Bean - Michelle Malkin -  Page full'
p57
aS'Something Weird in the U.S. New Home Market - Political  Calculations - Townhall Finance Conservative Columnists and Financial Commentary - Page full'
p58
aS"Pelosi Plans Defeat of Member-Elect Bruce Poliquin...Before He's Even Sworn In - Christine Rousselle "
p59
aS'The Shock of Christmas - Emmett Tyrrell -  Page full'
p60
aS"Boehner: Congress Will Not Cancel Obama's SOTU Address  - Leah Barkoukis "
p61
aS'\r\n\tPolitical Cartoons - Political Humor, Jokes, and Pictures, Obama, Palin ~ December 4, 2014 - 125545\r\n'
p62
aS'Ferguson: Inconvenient Facts About the Encounter - Larry Elder -  Page full'
p63
aS'Big Business Ready for War... Against the Administration - Charles Payne - Townhall Finance Conservative Columnists and Financial Commentary - Page full'
p64
aS"Where's the Fire, Buddy?  - Rich Galen -  Page full"
p65
aS"BREAKING: House Passes Symbolic Measure to 'Block' Obama's Executive Amnesty - Guy Benson "
p66
aS'The Weird United Nations Rule That Makes It Cheaper To Buy From Foreign Companies - Kevin Glass '
p67
aS'North Korea Declares Cyber War with Sony Pictures  - Night Watch - Townhall Finance Conservative Columnists and Financial Commentary - Page full'
p68
aS'"The Advent of Controversy" - Jerry Newcombe -  Page full'
p69
aS"The Math Doesn't Work - Bill Tatro - Townhall Finance Conservative Columnists and Financial Commentary - Page 1"
p70
aS'Property tax levies climb despite increased state aid - Tom Steward'
p71
aS'"We Don\'t Hate White People...Y\'all The Devil" - Greg Hengler '
p72
aS'GOP Poll: Perhaps Landrieu Should Start Packing Her Bags... - Daniel Doherty '
p73
aS'Stand WIth Hillary Releases Awesomely Bad Country Song Video - Christine Rousselle '
p74
aS"Ferguson Won't Go Away - Michael Reagan -  Page full"
p75
aS'Parent who opposed gender training to run for school board - Deena Winter'
p76
aS'Facebook Journalism: Is It Such Big News? - Debra J. Saunders -  Page full'
p77
aS'Stepdad of Michael Brown Incites Ferguson Riots: \xe2\x80\x98Burn This B*** Down!\xe2\x80\x99 - Rachel Alexander -  Page full'
p78
aS'After He, Racism - John Ransom - Townhall Finance Conservative Columnists and Financial Commentary - Page full'
p79
aS"An Unlawful Scheme to Raise Legislators' Pay - Jeff Jacoby -  Page 1"
p80
aS'Socialist Party Caught "Underpaying" Minimum Wage Activists   - Michael Schaus - Townhall Finance Conservative Columnists and Financial Commentary - Page full'
p81
aS"Clouded by myth, Ukraine's past proves an obstacle to its future - CSMonitor.com"
p82
aS'How Washington should think about the Internet of Things - CSMonitor.com'
p83
aS'How to topple Islamic State? 3 strengths that can be turned to weaknesses. - The Islamic State knows how to bring in the money \xe2\x80\x93 and how to use it - CSMonitor.com'
p84
aS'Possibility unbound: 25 years of progress for those with disability - CSMonitor.com'
p85
aS'Pentagon sex assault report shows progress, but victims still in shadows - CSMonitor.com'
p86
aS'Constant cycle of violence in Israel, regulating working hours in Japan, Bangladesh\xe2\x80\x99s quiet mobile revolution, Kenya standing against terrorist at... - CSMonitor.com'
p87
aS"'12 Days of Christmas' gifts cost $116K. 'Geese-a-laying' prices surge 74 percent. - CSMonitor.com"
p88
aS"Is Obama favoring donors in ambassador appointments? That's nothing new. - CSMonitor.com"
p89
aS"Russia's march toward self-reliance - CSMonitor.com"
p90
aS'With fewer young people gambling, time for a government rethink - CSMonitor.com'
p91
aS'How Chester the puppet sparked battle over race and free speech in South Africa - CSMonitor.com'
p92
aS'From Egyptian judges: conspiracy theories, mass death sentences, and freedom for Mubarak - CSMonitor.com'
p93
aS'Mining character for clues - CSMonitor.com'
p94
aS'Sarah Palin weighs in on Ferguson. Was it funny or offensive? - CSMonitor.com'
p95
aS"Mitch McConnell's big test - CSMonitor.com"
p96
aS'Amid anger over Eric Garner, a unique moment for change in NYPD - CSMonitor.com'
p97
aS'Did the moon once contain a dynamo? - CSMonitor.com'
p98
aS'Inventor hopes to clean the air with giant purifiers - CSMonitor.com'
p99
aS"Fallujah anniversary: Tracking down the US Marine 'Death Dealers' - CSMonitor.com"
p100
aS'Could you pass a citizenship test? States may make it graduation requirement. - CSMonitor.com'
p101
aS'Fortress Israel: Can people make peace when they don\xe2\x80\x99t talk? - CSMonitor.com'
p102
aS'Prospector Theater helps the disabled entertain new prospects - CSMonitor.com'
p103
aS'How to fix Congress: Two former Senate leaders give their repair list - CSMonitor.com'
p104
aS"Why Elon Musk's space agency is hiring a farmer - CSMonitor.com"
p105
aS'Why 20 year drop in crime is more impressive than it seems - CSMonitor.com'
p106
aS'Thursday night NFL: Dallas Cowboys vs. Chicago Bears - CSMonitor.com'
p107
aS'Taking a cue from nightclubs, 24-hour bookstores boom in Taiwan: Could they work in the US? - CSMonitor.com'
p108
aS'Watch live: How can policymakers help build the Internet of Things? - CSMonitor.com'
p109
aS'Elon Musk says SpaceX has a 50 percent chance of landing a rocket on floating platform - CSMonitor.com'
p110
aS'British police arrest seven in latest anti-jihadi sweep - CSMonitor.com'
p111
aS'Did Egypt\xe2\x80\x99s Sinai militants err in joining Islamic State? - CSMonitor.com'
p112
aS'The Benghazi Whitewash | The Weekly Standard'
p113
aS'Old-Time Religion   | The Weekly Standard'
p114
aS'Uncommon Ancestor  | The Weekly Standard'
p115
aS'Virginia vs. the EPA? | The Weekly Standard'
p116
aS'The Laughs on Us  | The Weekly Standard'
p117
aS'Highly Recommended    | The Weekly Standard'
p118
aS'Outer Borough Tales    | The Weekly Standard'
p119
aS'Political Care Package     | The Weekly Standard'
p120
aS'The Reacher File   | The Weekly Standard'
p121
aS'A Visual Dialogue  | The Weekly Standard'
p122
aS'Voice of Experience | The Weekly Standard'
p123
aS'Extending Extensions  | The Weekly Standard'
p124
aS'French Curtains | The Weekly Standard'
p125
aS'Sentences We Didn\xe2\x80\x99t Finish | The Weekly Standard'
p126
aS'Hope and Glory  | The Weekly Standard'
p127
aS'Com\xc3\xa8te Fran\xc3\xa7aise    | The Weekly Standard'
p128
aS'She\xe2\x80\x99s Back  | The Weekly Standard'
p129
aS'No Deal | The Weekly Standard'
p130
aS'Marion Barry\xe2\x80\x99s Legacy | The Weekly Standard'
p131
aS'Hartache | The Weekly Standard'
p132
aS'The Transition Years  | The Weekly Standard'
p133
aS'The Bitter End | The Weekly Standard'
p134
aS'Catching the Wave | The Weekly Standard'
p135
aS'Cr\xc3\xaapes Suzette or Pie? | The Weekly Standard'
p136
aS'Did He Jump, or Was He Pushed? | The Weekly Standard'
p137
aS"The President's Plucky Persian Pal | The Weekly Standard"
p138
aS'A New Name for a Tired Theory | The Weekly Standard'
p139
aS'American Blueprint   | The Weekly Standard'
p140
aS'Turkeys | The Weekly Standard'
p141
aS'A Solution for Cities on the Brink of Bankruptcy | The American Spectator'
p142
aS'Crowning Moments in Britain\xe2\x80\x99s One-Sided Culture War | The American Spectator'
p143
aS'Dad & Dylan | The American Spectator'
p144
aS'The Shock of Christmas | The American Spectator'
p145
aS'The Gift Shop of the Dead | The American Spectator'
p146
aS'Political Patsies: Is That the Best the Stupid Party Can Be? | The American Spectator'
p147
aS'FDA: More Nutrition Information Will Make Americans Healthier \xe2\x80\x94 Oh, Really? | The American Spectator'
p148
aS'Net Neutrality Compromises the Internet\xe2\x80\x99s Future  | The American Spectator'
p149
aS"Do What the Cops Tell You: It Isn't Rocket Science | The American Spectator"
p150
aS'David Brooks Insults Capitalism | The American Spectator'
p151
aS'The Sins of Elizabeth Lauten | The American Spectator'
p152
aS'Flying Into Integration | The American Spectator'
p153
aS'It Can\xe2\x80\x99t Rain Hard Enough | The American Spectator'
p154
aS'California Faces Death by Pension | The American Spectator'
p155
aS'Opinions Versus Facts | The American Spectator'
p156
aS'How Sovereign Patent Trolls Threaten Free Trade  | The American Spectator'
p157
aS'Rainy Day Rage | The American Spectator'
p158
aS'The Rehabilitation of Rick Perry | The American Spectator'
p159
aS'What? Another \xe2\x80\x98Conversation About Race\xe2\x80\x99? | The American Spectator'
p160
aS'The Search for Racism | The American Spectator'
p161
aS'Jon Stewart Explains What Is "So Utterly Depressing" About the Eric Garner Grand Jury | Mother Jones'
p162
aS'Unlike Diamonds, E-Books Are Not Forever | Mother Jones'
p163
aS'The US Government Deported 438,000 People in 2013. 83 Percent Never Got a Hearing. | Mother Jones'
p164
aS"Meet the Family Behind Latin America's Version of Planned Parenthood | Mother Jones"
p165
aS"I Told a Grand Jury I Saw a Cop Shoot and Kill an Unarmed Man. It Didn't Indict. | Mother Jones"
p166
aS'SeaWorld Says It Has to Keep Orcas in Captivity to Save Them | Mother Jones'
p167
aS'The Koch 130 | Mother Jones'
p168
aS'This Pro-Hillary Cowboy Anthem Will Make Your Ears Bleed | Mother Jones'
p169
aS'Map: The United States of Legal Weed | Mother Jones'
p170
aS"Grand Jury Doesn't Indict Staten Island Cop in Death of Eric Garner | Mother Jones"
p171
aS'The Problem With the Ferguson, Ray Rice, and UVA Rape Stories | Mother Jones'
p172
aS'St. Louis County Police on Tamir Rice Killing: "Kids Will Be Kids?"  | Mother Jones'
p173
aS'Watch NASA Launch Its Next-Gen Spacecraft Friday Morning | Mother Jones'
p174
aS'Rep. Peter King Blames Chokehold Death on Eric Garner\'s "Obesity" | Mother Jones'
p175
aS'A Texas Grand Jury Recently Cleared 2 White Cops Who Beat a Black Woman in Jail | Mother Jones'
p176
aS'Thurgood Marshall Blasted Police for Killing Black Men With Chokeholds | Mother Jones'
p177
aS'The Science of Why Cops Shoot Young Black Men | Mother Jones'
p178
aS'An Open Letter To Charles Barkley | The Nation'
p179
aS'Our Public Education System Needs Transformation, Not \xe2\x80\x98Reform\xe2\x80\x99 | The Nation'
p180
aS'Plugged Into the Socket of Life | The Nation'
p181
aS'Imitations of Life | The Nation'
p182
aS'Our Words, Our Selves | The Nation'
p183
aS'Are Cities the Next Front in the Right\xe2\x80\x99s War on Labor? | The Nation'
p184
aS'Why Hagel\xe2\x80\x99s Departure Is a Victory For War Hawks  | The Nation'
p185
aS'No Fate but Entropy | The Nation'
p186
aS'In Egypt\xe2\x80\x99s Growing Insurgency, Civilians Pay the Highest Price | The Nation'
p187
aS'Darren Wilson: America\xe2\x80\x99s \xe2\x80\x98Model Policeman\xe2\x80\x99 | The Nation'
p188
aS'The UN Backs Down a Little, Adds More Women to Its Peacekeeping Panel | The Nation'
p189
aS'4 Reasons Keystone Really Matters | The Nation'
p190
aS'Why It\xe2\x80\x99s Impossible to Indict a Cop | The Nation'
p191
aS'Anti-Gay, Anti-Choice Children\xe2\x80\x99s AIDS Fund Still Raking In Taxpayer Money | The Nation'
p192
aS'Removing tourists and objects from photos: Demonstration of easy Photoshop feature (VIDEO).  \n'
p193
aS'Eric Garner, Daniel Pantaleo, and cop training: Police departments must explain why their officers\xe2\x80\x99 first instinct is the sudden use of force.'
p194
aS'Global warming: Antarctica is losing more than 6 billion tons of ice annually.'
p195
aS"Uber raises $1.2 billion: New funding gives Travis Kalanick's ride service a $40 billion valuation."
p196
aS'Warren Buffett Ready for Hillary donation: Gives maximum to Clinton super PAC.'
p197
aS"James Watson Nobel Prize auction: Medal for DNA discovery gets $4.1 million at Christie's."
p198
aS'Jon Stewart on Eric Garner: The Daily Show got serious on the grand jury decision (VIDEO).'
p199
aS'Running calculator: Introducing Slate\xe2\x80\x99s marathon time predictor, a better way to calculate how fast you\xe2\x80\x99ll run.\xe2\x80\xa8'
p200
aS'New York Times notable books of 2014 list incites Ayelet Waldman to twitter fury. '
p201
aS'Ferguson grand jury investigation: A shadow trial violates the public\xe2\x80\x99s right to access.'
p202
aS'The art of science: How they intertwine.'
p203
aS'We Second That Second Novel List: Marlon James\xe2\x80\x99 The Book of Night Women.'
p204
aS'James Watson selling Nobel Prize: DNA structure discoverer\xe2\x80\x99s history of racism and sexism.'
p205
aS'Adam Voorhes photographs a rare collection of brains in his book, Malformed: Forgotten Brains of the Texas State Mental Hospital, with Alex Hannaford.'
p206
aS'Purity Ring Push Pull track: Duo\xe2\x80\x99s first new album material since their debut is great (VIDEO).'
p207
aS'Wild, reviewed: Reese Witherspoon takes an epic hike in this adaptation of Cheryl Strayed\xe2\x80\x99s memoir.'
p208
aS'Jeb Bush\xe2\x80\x99s chances in 2016: Can the former Florida governor win over the Republican Party?'
p209
aS'Dear Prudence: Is our sexy young nanny a temptation for my husband?'
p210
aS'Hawaiian "Mele Kalikimaka," Greek "khristos," Xmas, and why not "Hristmas": Sound changes in Christmas vocabulary.'
p211
aS'Single-sex classroom research: Fake brain science supports gender segregation.'
p212
aS'Map of juvenile delinquents: DC map from 1935 showing homes of juvenile offenders. '
p213
aS'Law school solvency: Why I just bet a professor money that at least one law school will close.\n'
p214
aS'"Why doesn\'t she leave?": The Janay Rice interview contains some answers to the perennial domestic violence question.'
p215
aS"We don't need to ban frats to reduce rape rates, but it might help to integrate women into them."
p216
aS'Sabrina Rubin Erdely, UVA: Why didn\xe2\x80\x99t a Rolling Stone writer talk to the alleged perpetrators of a gang rape?'
p217
aS'Flu from a flu shot? Why it\xe2\x80\x99s impossible to get sick from the vaccination (VIDEO).'
p218
aS"Bill Cosby rape allegations: Tina Fey brought them up on Saturday Night Live's Weekend Update in 2005 (VIDEO)."
p219
aS'Football on Thanksgiving: How the Dallas Cowboys ruined Turkey Day.'
p220
aS'Facebook copyright notice hoax: How algorithms could stop misinformation. '
p221
aS'Eric Garner, no indictment: Grand jury declines to charge Daniel Pantaleo.'
p222
aS'New York City protests over Eric Garner grand jury decision.'
p223
aS'Grand jury subpoena and FBI search lead LA school district to end iPad, Pearson contract.'
p224
aS'Young v. UPS: The Supreme Court takes up pregnant workers\xe2\x80\x99 rights.'
p225
aS'Google Tax: The UK cracks down on multinational companies shifting profits and taxes abroad.'
p226
aS'Stephanie Diani: Live Audience! Looks at the people who attend multiple television tapings (PHOTOS).'
p227
aS'Sam Hinkie: Is the Philadelphia 76ers\xe2\x80\x99 lose-on-purpose approach to team-building ingenious or morally bankrupt?'
p228
aS"Ball Aerospace: A company known for mason jars helped with NASA's Orion capsule."
p229
aS'2014 World Series, Game 7: Should Alex Gordon have tried to dash home with the tying run?'
p230
aS'Whole Foods Detroit: Can a grocery store really fight elitism, racism, and obesity?'
p231
aS'Cleveland police, Justice Department: Systemic use of excessive force. '
p232
aS'Young v. UPS pregnancy discrimination arguments: Supreme Court justices argue over a semicolon.'
p233
aS'Iran vigorously denies U.S. claims that it\xe2\x80\x99s cooperating with the U.S. against ISIS'
p234
aS'Broken windows policing doesn\xe2\x80\x99t work. It also may have killed Eric Garner.'
p235
aS'Creationism poll: How many Americans believe the Bible is literal, inerrant, or symbolic.'
p236
aS"While We're Young trailer: Noah Baumbach movie stars Ben Stiller, Adam Driver, and Ad-Rock (VIDEO)."
p237
aS'China says it will stop harvesting organs from executed prisoners.'
p238
aS'Top skyscrapers around the world that were stalled, stunted, stopped midconstruction, or never built. '
p239
aS'LeBron James, Cleveland: How LeBron and the city found their way back to each other.'
p240
aS'Dave Brandon: The resignation of Michigan\xe2\x80\x99s villainous athletic director is why we like college sports.'
p241
aS'Patrick Morarescu photographs performance artists.'
p242
aS'Yoan Moncada: Is It Now Legal for Cuban Ballplayers to Leave Their Country and Join the Major Leagues? '
p243
aS'Girlfriends\xe2\x80\x99 Guide to Divorce on Bravo: Lisa Edelstein\xe2\x80\x99s new show, reviewed.'
p244
aS'Transparency International index: As long as everyone thinks China is corrupt, it still needs Hong Kong.'
p245
aS'Renee C. Byer: Living On A Dollar A Day is an examination of worldwide extreme hunger and poverty (PHOTOS).'
p246
aS'Edie Bresler: We Sold a Winner looks at the stores that sold winning lottery tickets around the country (PHOTOS).'
p247
aS'Sony Pictures hack: Was North Korea really the culprit?'
p248
aS'Nonce words: Why does English have so many obscure words?'
p249
aS'The new seven wonders: Defining the top technological marvels of the contemporary age.'
p250
aS'Kim Kardashian didn\xe2\x80\x99t break the Internet: How to cause a scandal in an overly transgressive age.'
p251
aS"Barnes & Noble buys out Microsoft's Nook stake to prepare for e-reader spinoff."
p252
aS'Katrina Arnold photographs New Orleans Ladies Arm Wrestling tournaments.  '
p253
aS'Holiday season hacking: Beware of malware and phishing in order confirmation emails.'
p254
aS'Transparent\xe2\x80\x99s Zackary Drucker wants to archive Flawless Sabrina\xe2\x80\x99s lifework.'
p255
aS'The Unspeakable: And Other Subjects of Discussion, an essay collection, by Meghan Daum, reviewed.'
p256
aS'Pink slugs, drunken parrots, giant earthworms, and tree lobsters of Australia.'
p257
aS'Dr. Ben Carson blames feminism and the 60s for police shootings of unarmed black men.'
p258
aS'Slate recommendations: Favorite media recommendations from staffers this Thanksgiving. '
p259
aS'Orion launch: Watch live.'
p260
aS'Best books of 2014: Slate Book Review editor picks.'
p261
aS'Girl Scouts: Cookies go digital, but Girl Scouts brand still suffers. '
p262
aS'New No CAPTCHA reCAPTCHA from Google is much easier for humans.'
p263
aS"U.S. Department of Education comes out in support of transgender students' rights."
p264
aS"Derrick Rose, injuries: NBA stars aren't superheroes. They break just like the rest of us puny humans."
p265
aS'Terminator: Genisys trailer: Arnold Schwarzenegger returns in the franchise reboot (VIDEO).'
p266
aS'Cosby lawsuit claims extortion by Judy Huth.'
p267
aS'Darren Wilson \xe2\x80\x9cno true bill\xe2\x80\x9d: Why cops are almost never indicted for shooting someone in the line of duty.'
p268
aS"Science shows you're better off being a nice boss."
p269
aS'Ashton Carter may be a good defense secretary: Why does the United States have so few people qualified to run the Pentagon?'
p270
aS'Fox Host Carlson hopes New York City tree lighting unaffected by Garner protests. '
p271
aS'Slate\xe2\x80\x99s most commented articles: Who comments on what articles and why?'
p272
aS'Dear Prudence: My husband is a bad gift-giver.'
p273
aS'Darren Wilson\xe2\x80\x99s racial portrayal of Michael Brown as a superhuman demon: The Ferguson police officer\xe2\x80\x99s account is a common projection of racial fears. '
p274
aS'Israel\xe2\x80\x99s demolition of Palestinian homes: Benjamin Netanyahu\xe2\x80\x99s government teaches its citizens the wrong lessons.'
p275
aS'Eric Garner, grand jury: How would we cover the decision not to indict a police officer if it happened in another country?'
p276
aS'Netizen Report: Iranian Facebook user sentenced to death for allegedly insulting the prophet.'
p277
aS'Drinking problem in academia: Alcohol abuse among faculty members.'
p278
aS'How should Slate improve its comments section? A members-only open thread.'
p279
aS'Dear Prudence: I was fat-shamed by my cousin at Thanksgiving.'
p280
aS'Marcel Leli\xc3\xabnhof photographs the Hells Angels in Norway in his book, Helvetes Engler\xe2\x80\x94Hells Angels MC Norway(PHOTOS).'
p281
aS'Daniel Pantaleo not indicted: Why the NYPD officer wasn\xe2\x80\x99t indicted in the chokehold death of Eric Garner.'
p282
aS'President Obama says voters want \xe2\x80\x9cthat new car smell\xe2\x80\x9d: Can he take criticism from Hillary Clinton and other Democrats in the 2016 presidential race?'
p283
aS'M83: New composite shows incredible detail.'
p284
aS'Peter Pan played by a woman: Why? A history of casting the J.M. Barrie character.'
p285
aS'Best drone gifts: DJI Phantom, Parrot AR, Rolling Spider reviewed.'
p286
aS'Tension between Germany and other eurozone countries over stimulus is hurting the economy.'
p287
aS'A Thanksgiving guide to talking to your relatives about Bill Cosby, affirmative consent, and feminism. '
p288
aS'Why female Jacana birds do all the fighting while the males stay home and watch the kids. '
p289
aS'Sian Davey: Looking for Alice is a series about a photographer\xe2\x80\x99s relationship with her daughter who has Down syndrome (PHOTOS).'
p290
aS'Gangnam Style was so popular that YouTube had to upgrade its view counter.'
p291
aS'Ridley Scott\xe2\x80\x99s Exodus: Were ancient Egyptians white, black, or brown?'
p292
aS'Are trolls ruining Slate\xe2\x80\x99s comment section?'
p293
aS'Protests continue over grand jury decision in Eric Garner case. '
p294
aS'Dress codes: Smart casual, dress to impress, cocktail attire, tropical chic, explained.'
p295
aS'Overturned New York Times truck in Philadelphia: no particular symbolic significance.'
p296
aS'Beards: History and theory of male facial hair and comedy.'
p297
aS"How Yahoo could make up for its decision to sell Flickr users' photos."
p298
aS'Google services for kids are coming next year.'
p299
aS'Chris Hemsworth is the Sexiest Man Alive 2014: A look back at People\xe2\x80\x99s most enduring brand. '
p300
aS'Sheldon Adelson may have spent too much fighting Internet gambling: The Las Vegas billionaire shouldn\xe2\x80\x99t have made himself part of the story.'
p301
aS'Hosni Mubarak freed in Egypt: It\xe2\x80\x99s futile for revolutionaries to charge dictators.'
p302
aS'Chicago minimum wage vote: $13 by 2019, including for domestic workers. '
p303
aS'Reverend'
p304
aS'The U.K.\xe2\x80\x99s \xe2\x80\x9cMr. Austerity\xe2\x80\x9d Doubles Down - The New Yorker'
p305
aS"Crisis in Mexico: Pena Nieto, and Mexico's Infrarrealistas"
p306
aS'Rohan Marley\xe2\x80\x99s Marijuana Venture'
p307
aS'A New Deal for the Kurds - The New Yorker'
p308
aS'What the Eric Garner Grand Jury Didn\xe2\x80\x99t See - The New Yorker'
p309
aS'The Political Scene: Negotiating Climate Change - The New Yorker'
p310
aS'ISIS at the Border'
p311
aS'Whose Streets? - The New Yorker'
p312
aS'Can Chris Rock Make the Leap to Leading Man?'
p313
aS'Hans Ulrich Obrist, the Curator Who Never Sleeps'
p314
aS'New York\xe2\x80\x99s Verdict: We Can\xe2\x80\x99t Breathe - The New Yorker'
p315
aS'Why Cameras on Police Officers Won\xe2\x80\x99t Save Us - The New Yorker'
p316
aS'The Carnival Logic of \xe2\x80\x9cAmerican Horror Story: Freak Show\xe2\x80\x9d'
p317
aS'No Such Thing as Racial Profiling'
p318
aS'The View from a Bridge'
p319
aS'A Risky Novel of Seduction and Betrayal'
p320
aS'An Alaskan Poet\xe2\x80\x99s Lyrics of Sex and Power'
p321
aS'Tables for Two: Turntable Retro Bar & Restaurant Mad for Chicken'
p322
aS'The Wu-Tang Clan\xe2\x80\x99s \xe2\x80\x9cA Better Tomorrow\xe2\x80\x9d'
p323
aS'How Washington made itself irrelevant - The Washington Post'
p324
aS'Jenna Bush Hager, hanky-panky, and the White House roof - The Washington Post'
p325
aS'Police union: \xe2\x80\x98We don\xe2\x80\x99t believe it\xe2\x80\x99s an issue of race. We believe it\xe2\x80\x99s an issue of poverty\xe2\x80\x99 - The Washington Post'
p326
aS'French horns? Snowshoes? TVs? Pentagon details what it gives to U.S. police - The Washington Post'
p327
aS'\xe2\x80\x98I honestly don\xe2\x80\x99t know what to say\xe2\x80\x99; Jon Stewart gets serious on Eric Garner - The Washington Post'
p328
aS'A safe zone in Syria would be a forward step in the Islamic State fight - The Washington Post'
p329
aS'The big winner of the holiday season so far: mobile shopping - The Washington Post'
p330
aS'Developer wants portion of I-395 in D.C. shut down to expedite construction project - The Washington Post'
p331
aS'Does this postal chairman\xe2\x80\x99s lobbying history pose a conflict of interest? - The Washington Post'
p332
aS'Even climate change experts and activists are in denial about climate change - The Washington Post'
p333
aS'Arab autocrats are not going back to the future - The Washington Post'
p334
aS'Ben Carson to Wolf Blitzer: I stand by my Nazi Germany-U.S. comments - The Washington Post'
p335
aS'The problem with the U.S. policy of no ransoms? Hostage rescues are very, very difficult. - The Washington Post'
p336
aS'For Jay Gruden, the best place for Robert Griffin III is elsewhere - The Washington Post'
p337
aS'Residents of Prince George\xe2\x80\x99s have waited too long for improved medical facilities - The Washington Post'
p338
aS'The remarkable collapse of our trust in government, in one chart - The Washington Post'
p339
aS'DARRIN BELL: From Ferguson to New York cases, \xe2\x80\x98Candorville\xe2\x80\x99 cartoonist draws deeply from the personal [Q&A] - The Washington Post'
p340
aS'The loss of Rep. Mike Rogers as head of the House Intelligence Committee is a blow to bipartisanship - The Washington Post'
p341
aS'PM Update: Rain moves in this evening; Fallstreak clouds over D.C. - The Washington Post'
p342
aS'Day in photos - The Washington Post'
p343
aS'Bill Cosby\xe2\x80\x99s honorary title revoked by U.S. Navy - The Washington Post'
p344
aS'This flu season could be a bad one, CDC says - The Washington Post'
p345
aS'Teens are better than us at everything, and this teen\xe2\x80\x99s \xe2\x80\x98cute mugshot\xe2\x80\x99 is proof - The Washington Post'
p346
aS'The racial divide in America is this elemental: Blacks and whites actually breathe different air. - The Washington Post'
p347
aS'New York Mayor, police union officials clash after grand jury decision in Eric Garner\xe2\x80\x99s death - The Washington Post'
p348
aS'When you\xe2\x80\x99re feeling down, watch John Wall shimmy - The Washington Post'
p349
aS'6 things you didn\xe2\x80\x99t read today (but should have) - The Washington Post'
p350
aS'Expect large crowds for downtown events - The Washington Post'
p351
aS'Plunging oil prices spell trouble for Alaska, America\xe2\x80\x99s own petro-state - The Washington Post'
p352
aS'Many liberals and conservatives find themselves on common ground following the Garner decision - The Washington Post'
p353
aS'New York police union official blames media over Eric Garner case - The Washington Post'
p354
aS'Washington state man accused of making threats against Darren Wilson, ex-Ferguson cop who shot Michael Brown - The Washington Post'
p355
aS'Hagel says resignation followed series of conversations with president - The Washington Post'
p356
aS'Katie Zezima - The Washington Post'
p357
aS'Jay Gruden could consider adding quarterbacks coach to staff next year - The Washington Post'
p358
aS'Jonnelle Marte - The Washington Post'
p359
aS'Winona State gymnast Brooke Baures dies following accident in food-service elevator - The Washington Post'
p360
aS'More protests underway in D.C. on Thursday - The Washington Post'
p361
aS'Angela Fritz - The Washington Post'
p362
aS'Fixing the conflict of interest at the core of police brutality cases - The Washington Post'
p363
aS'U.S. contractor has spent five years in a Cuban prison for distributing Internet equipment - The Washington Post'
p364
aS'Does Rahm Emanuel miss D.C.? Pardon his French, but no. - The Washington Post'
p365
aS'Are you smart enough to retire? - The Washington Post'
p366
aS'What percentage of politicians support same-sex marriage, by state - The Washington Post'
p367
aS'The surprising origins of the #CrimingWhileWhite movement - The Washington Post'
p368
aS'I refuse to post a single picture of my baby on Facebook - The Washington Post'
p369
aS'We\xe2\x80\x99ve reached a tipping point when Charles Krauthammer is more outspoken on police abuses than Barack Obama - The Washington Post'
p370
aS'The glaring problem with #CrimingWhileWhite - The Washington Post'
p371
aS'Huge shakeup at The New Republic: What does this vanity publisher want? - The Washington Post'
p372
aS'Black males and the cops who kill them - The Washington Post'
p373
aS'After Brown and Garner, limiting the downside of police body cameras - The Washington Post'
p374
aS'Dangerous Super Typhoon Hagupit on collision course with Philippines - The Washington Post'
p375
aS'The real fight is among the Democrats - The Washington Post'
p376
aS'Knox County cop fired immediately after photos show brutal choking of student - The Washington Post'
p377
aS'Bright, exploding fireball streaks across the sky over Northeast U.S. - The Washington Post'
p378
aS'Defense spending bill passes, sequester must now go - The Washington Post'
p379
aS'Denard Span has sports hernia surgery (updated) - The Washington Post'
p380
aS'In the \xe2\x80\x98global struggle for Internet freedom,\xe2\x80\x99 the Internet is losing, report finds - The Washington Post'
p381
aS'Body cameras won\xe2\x80\x99t stop police brutality. Eric Garner is only one of several reasons why. - The Washington Post'
p382
aS'Scott Allen - The Washington Post'
p383
aS'The strength, and limits, of de Blasio\xe2\x80\x99s speech about Eric Garner - The Washington Post'
p384
aS'Catherine Rampell: Men want women to be equal, but the system defeats them - The Washington Post'
p385
aS'CNN\xe2\x80\x99s S.E. Cupp welcomes baby boy - The Washington Post'
p386
aS'The standing problem in Zivotofsky, revisited - The Washington Post'
p387
aS'The Eric Garner case\xe2\x80\x99s sickening outcome - The Washington Post'
p388
aS'Nancy Scola - The Washington Post'
p389
aS'2014\xe2\x80\x99s fascinating images - The Washington Post'
p390
aS'Investigation: Afghan shooter ambushed slain Army general at close range - The Washington Post'
p391
aS'Obama to nominate next secretary of defense tomorrow - The Washington Post'
p392
aS'27 holiday cookie recipes to sweeten the season - The Washington Post'
p393
aS'Elahe Izadi - The Washington Post'
p394
aS'Could \xe2\x80\x98Barry\xe2\x80\x99 sue Lena Dunham over her memoirs? - The Washington Post'
p395
aS'Orion test flight scrubbed due to valve problems - The Washington Post'
p396
aS'\xe2\x80\x98Star Wars, Episode VII\xe2\x80\x99: Please, for the love of God, as little politics as possible - The Washington Post'
p397
aS'Ferguson, Staten Island: Similar events bring very different reaction - The Washington Post'
p398
aS'Same-sex marriage in Florida could begin in January, court rules - The Washington Post'
p399
aS'Capitals at Hurricanes: Game 25 discussion thread - The Washington Post'
p400
aS'Sarah Larimer - The Washington Post'
p401
aS'Manila Mart in Beltsville caters to Pinoys and American fanboys alike - The Washington Post'
p402
aS'The rules of engagement: How militarized police units enforce the law around the world - The Washington Post'
p403
aS'Why Apple\xe2\x80\x99s in court over iPod software it stopped using in 2009 - The Washington Post'
p404
a.